; ModuleID = '53/658.c'
source_filename = "53/658.c"
target datalayout = "e-m:e-p270:32:32-p271:32:32-p272:64:64-i64:64-f80:128-n8:16:32:64-S128"
target triple = "x86_64-pc-linux-gnu"

@.str = private unnamed_addr constant [3 x i8] c"%d\00", align 1
@.str.1 = private unnamed_addr constant [4 x i8] c",%d\00", align 1

; Function Attrs: noinline nounwind uwtable
define dso_local i32 @main() #0 {
  %1 = alloca i32, align 4
  %2 = alloca i32, align 4
  %3 = alloca i32, align 4
  %4 = alloca [300 x i32], align 16
  %5 = alloca i32*, align 8
  %6 = alloca i32*, align 8
  store i32 0, i32* %1, align 4
  %7 = call i32 (i8*, ...) @__isoc99_scanf(i8* getelementptr inbounds ([3 x i8], [3 x i8]* @.str, i64 0, i64 0), i32* %2)
  store i32 0, i32* %3, align 4
  br label %8

8:                                                ; preds = %17, %0
  %9 = load i32, i32* %3, align 4
  %10 = load i32, i32* %2, align 4
  %11 = icmp slt i32 %9, %10
  br i1 %11, label %12, label %20

12:                                               ; preds = %8
  %13 = load i32, i32* %3, align 4
  %14 = sext i32 %13 to i64
  %15 = getelementptr inbounds [300 x i32], [300 x i32]* %4, i64 0, i64 %14
  %16 = call i32 (i8*, ...) @__isoc99_scanf(i8* getelementptr inbounds ([3 x i8], [3 x i8]* @.str, i64 0, i64 0), i32* %15)
  br label %17

17:                                               ; preds = %12
  %18 = load i32, i32* %3, align 4
  %19 = add nsw i32 %18, 1
  store i32 %19, i32* %3, align 4
  br label %8

20:                                               ; preds = %8
  %21 = getelementptr inbounds [300 x i32], [300 x i32]* %4, i64 0, i64 0
  store i32* %21, i32** %5, align 8
  %22 = load i32*, i32** %5, align 8
  %23 = load i32, i32* %22, align 4
  %24 = call i32 (i8*, ...) @printf(i8* getelementptr inbounds ([3 x i8], [3 x i8]* @.str, i64 0, i64 0), i32 %23)
  %25 = getelementptr inbounds [300 x i32], [300 x i32]* %4, i64 0, i64 0
  %26 = getelementptr inbounds i32, i32* %25, i64 1
  store i32* %26, i32** %5, align 8
  br label %27

27:                                               ; preds = %61, %20
  %28 = load i32*, i32** %5, align 8
  %29 = getelementptr inbounds [300 x i32], [300 x i32]* %4, i64 0, i64 0
  %30 = load i32, i32* %2, align 4
  %31 = sext i32 %30 to i64
  %32 = getelementptr inbounds i32, i32* %29, i64 %31
  %33 = icmp ult i32* %28, %32
  br i1 %33, label %34, label %64

34:                                               ; preds = %27
  %35 = load i32*, i32** %5, align 8
  %36 = getelementptr inbounds i32, i32* %35, i64 -1
  store i32* %36, i32** %6, align 8
  br label %37

37:                                               ; preds = %49, %34
  %38 = load i32*, i32** %6, align 8
  %39 = getelementptr inbounds [300 x i32], [300 x i32]* %4, i64 0, i64 0
  %40 = icmp uge i32* %38, %39
  br i1 %40, label %41, label %52

41:                                               ; preds = %37
  %42 = load i32*, i32** %5, align 8
  %43 = load i32, i32* %42, align 4
  %44 = load i32*, i32** %6, align 8
  %45 = load i32, i32* %44, align 4
  %46 = icmp eq i32 %43, %45
  br i1 %46, label %47, label %48

47:                                               ; preds = %41
  br label %52

48:                                               ; preds = %41
  br label %49

49:                                               ; preds = %48
  %50 = load i32*, i32** %6, align 8
  %51 = getelementptr inbounds i32, i32* %50, i32 -1
  store i32* %51, i32** %6, align 8
  br label %37

52:                                               ; preds = %47, %37
  %53 = load i32*, i32** %6, align 8
  %54 = getelementptr inbounds [300 x i32], [300 x i32]* %4, i64 0, i64 0
  %55 = icmp ult i32* %53, %54
  br i1 %55, label %56, label %60

56:                                               ; preds = %52
  %57 = load i32*, i32** %5, align 8
  %58 = load i32, i32* %57, align 4
  %59 = call i32 (i8*, ...) @printf(i8* getelementptr inbounds ([4 x i8], [4 x i8]* @.str.1, i64 0, i64 0), i32 %58)
  br label %60

60:                                               ; preds = %56, %52
  br label %61

61:                                               ; preds = %60
  %62 = load i32*, i32** %5, align 8
  %63 = getelementptr inbounds i32, i32* %62, i32 1
  store i32* %63, i32** %5, align 8
  br label %27

64:                                               ; preds = %27
  ret i32 0
}

declare dso_local i32 @__isoc99_scanf(i8*, ...) #1

declare dso_local i32 @printf(i8*, ...) #1


!llvm.module.flags = !{!0}
!llvm.ident = !{!1}

!0 = !{i32 1, !"wchar_size", i32 4}
!1 = !{!"clang version 10.0.0-4ubuntu1 "}
